; Function Attrs: mustprogress uwtable
define dso_local noundef zeroext i1 @_ZN5ImGui13CheckboxFlagsEPKcPxx(ptr noundef %0, ptr noundef captures(none) %1, i64 noundef %2) local_unnamed_addr #5 {
  %4 = alloca i8, align 1
  call void @llvm.lifetime.start.p0(i64 1, ptr nonnull %4) #43
  %5 = load i64, ptr %1, align 8, !tbaa !224
  %6 = and i64 %5, %2
  %7 = icmp eq i64 %6, %2
  %8 = zext i1 %7 to i8
  store i8 %8, ptr %4, align 1, !tbaa !207
  %.not.i = icmp eq i64 %6, 0
  %or.cond.i = or i1 %7, %.not.i
  br i1 %or.cond.i, label %9, label %11

9:                                                ; preds = %3
  %10 = call noundef zeroext i1 @_ZN5ImGui8CheckboxEPKcPb(ptr noundef %0, ptr noundef nonnull %4)
  br i1 %10, label %17, label %_ZN5ImGui14CheckboxFlagsTIxEEbPKcPT_S3_.exit

11:                                               ; preds = %3
  %12 = load ptr, ptr @GImGui, align 8, !tbaa !4
  %13 = getelementptr inbounds nuw i8, ptr %12, i64 7380
  %14 = load i32, ptr %13, align 4, !tbaa !267
  %15 = or i32 %14, 4096
  store i32 %15, ptr %13, align 4, !tbaa !267
  %16 = call noundef zeroext i1 @_ZN5ImGui8CheckboxEPKcPb(ptr noundef %0, ptr noundef nonnull %4)
  br i1 %16, label %17, label %_ZN5ImGui14CheckboxFlagsTIxEEbPKcPT_S3_.exit

17:                                               ; preds = %11, %9
  %18 = load i8, ptr %4, align 1, !tbaa !207, !range !152, !noundef !153
  %19 = trunc nuw i8 %18 to i1
  br i1 %19, label %20, label %23

20:                                               ; preds = %17
  %21 = load i64, ptr %1, align 8, !tbaa !224
  %22 = or i64 %21, %2
  br label %.sink.split.i

23:                                               ; preds = %17
  %24 = xor i64 %2, -1
  %25 = load i64, ptr %1, align 8, !tbaa !224
  %26 = and i64 %25, %24
  br label %.sink.split.i

.sink.split.i:                                    ; preds = %23, %20
  %.sink.i = phi i64 [ %22, %20 ], [ %26, %23 ]
  store i64 %.sink.i, ptr %1, align 8, !tbaa !224
  br label %_ZN5ImGui14CheckboxFlagsTIxEEbPKcPT_S3_.exit

_ZN5ImGui14CheckboxFlagsTIxEEbPKcPT_S3_.exit:     ; preds = %9, %11, %.sink.split.i
  %.0.in14.i = phi i1 [ false, %9 ], [ false, %11 ], [ true, %.sink.split.i ]
  call void @llvm.lifetime.end.p0(i64 1, ptr nonnull %4) #43
  ret i1 %.0.in14.i
}